; Function Attrs: nounwind uwtable
define i32 @arkStep_NlsFPFunction_MassFixed(ptr noundef %0, ptr noundef %1, ptr noundef %2) #0 {
  %4 = alloca ptr, align 8
  %5 = alloca ptr, align 8
  call void @llvm.lifetime.start.p0(i64 8, ptr nonnull %4) #5
  call void @llvm.lifetime.start.p0(i64 8, ptr nonnull %5) #5
  %6 = call i32 @arkStep_AccessARKODEStepMem(ptr noundef %2, ptr noundef nonnull @__func__.arkStep_NlsFPFunction_MassFixed, ptr noundef nonnull %4, ptr noundef nonnull %5) #5
  %.not = icmp eq i32 %6, 0
  br i1 %.not, label %7, label %59

7:                                                ; preds = %3
  %8 = load ptr, ptr %5, align 8, !tbaa !14
  %9 = getelementptr inbounds nuw i8, ptr %8, i64 72
  %10 = load ptr, ptr %9, align 8, !tbaa !39
  %11 = load ptr, ptr %4, align 8, !tbaa !40
  %12 = getelementptr inbounds nuw i8, ptr %11, i64 584
  %13 = load ptr, ptr %12, align 8, !tbaa !42
  call void @N_VLinearSum(double noundef 1.000000e+00, ptr noundef %10, double noundef 1.000000e+00, ptr noundef %0, ptr noundef %13) #5
  %14 = load ptr, ptr %5, align 8, !tbaa !14
  %15 = getelementptr inbounds nuw i8, ptr %14, i64 144
  %16 = load ptr, ptr %15, align 8, !tbaa !29
  %17 = load ptr, ptr %4, align 8, !tbaa !40
  %18 = getelementptr inbounds nuw i8, ptr %17, i64 752
  %19 = load double, ptr %18, align 8, !tbaa !52
  %20 = getelementptr inbounds nuw i8, ptr %17, i64 584
  %21 = load ptr, ptr %20, align 8, !tbaa !42
  %22 = getelementptr inbounds nuw i8, ptr %14, i64 48
  %23 = load ptr, ptr %22, align 8, !tbaa !49
  %24 = getelementptr inbounds nuw i8, ptr %14, i64 96
  %25 = load i32, ptr %24, align 8, !tbaa !50
  %26 = sext i32 %25 to i64
  %27 = getelementptr inbounds ptr, ptr %23, i64 %26
  %28 = load ptr, ptr %27, align 8, !tbaa !51
  %29 = getelementptr inbounds nuw i8, ptr %17, i64 16
  %30 = load ptr, ptr %29, align 8, !tbaa !53
  %31 = call i32 %16(double noundef %19, ptr noundef %21, ptr noundef %28, ptr noundef %30) #5
  %32 = load ptr, ptr %5, align 8, !tbaa !14
  %33 = getelementptr inbounds nuw i8, ptr %32, i64 392
  %34 = load i64, ptr %33, align 8, !tbaa !54
  %35 = add nsw i64 %34, 1
  store i64 %35, ptr %33, align 8, !tbaa !54
  %36 = icmp slt i32 %31, 0
  br i1 %36, label %59, label %37

37:                                               ; preds = %7
  %.not13 = icmp eq i32 %31, 0
  br i1 %.not13, label %38, label %59

38:                                               ; preds = %37
  %39 = getelementptr inbounds nuw i8, ptr %32, i64 152
  %40 = load double, ptr %39, align 8, !tbaa !57
  %41 = getelementptr inbounds nuw i8, ptr %32, i64 48
  %42 = load ptr, ptr %41, align 8, !tbaa !49
  %43 = getelementptr inbounds nuw i8, ptr %32, i64 96
  %44 = load i32, ptr %43, align 8, !tbaa !50
  %45 = sext i32 %44 to i64
  %46 = getelementptr inbounds ptr, ptr %42, i64 %45
  %47 = load ptr, ptr %46, align 8, !tbaa !51
  %48 = getelementptr inbounds nuw i8, ptr %32, i64 64
  %49 = load ptr, ptr %48, align 8, !tbaa !56
  call void @N_VLinearSum(double noundef %40, ptr noundef %47, double noundef 1.000000e+00, ptr noundef %49, ptr noundef %1) #5
  %50 = load ptr, ptr %5, align 8, !tbaa !14
  %51 = getelementptr inbounds nuw i8, ptr %50, i64 352
  %52 = load ptr, ptr %51, align 8, !tbaa !59
  %53 = load ptr, ptr %4, align 8, !tbaa !40
  %54 = getelementptr inbounds nuw i8, ptr %50, i64 232
  %55 = load double, ptr %54, align 8, !tbaa !60
  %56 = call i32 %52(ptr noundef %53, ptr noundef %1, double noundef %55) #5
  %57 = icmp slt i32 %56, 0
  br i1 %57, label %59, label %58

58:                                               ; preds = %38
  %.not14 = icmp eq i32 %56, 0
  %. = select i1 %.not14, i32 0, i32 9
  br label %59

59:                                               ; preds = %58, %38, %37, %7, %3
  %.0 = phi i32 [ %6, %3 ], [ -8, %7 ], [ 9, %37 ], [ -8, %38 ], [ %., %58 ]
  call void @llvm.lifetime.end.p0(i64 8, ptr nonnull %5) #5
  call void @llvm.lifetime.end.p0(i64 8, ptr nonnull %4) #5
  ret i32 %.0
}